; Function Attrs: nofree nounwind uwtable
define internal fastcc ptr @get_or_alloc_force_qt(ptr noundef captures(none) %0, i32 noundef %1) unnamed_addr #1 {
  %3 = getelementptr inbounds nuw i8, ptr %0, i64 72
  %4 = load ptr, ptr %3, align 8, !tbaa !59
  %.not = icmp eq ptr %4, null
  br i1 %.not, label %5, label %20

5:                                                ; preds = %2
  %6 = sext i32 %1 to i64
  %.not.i = icmp eq i32 %1, 0
  br i1 %.not.i, label %.thread.i, label %8

.thread.i:                                        ; preds = %5
  %7 = tail call noalias ptr @calloc(i64 noundef 0, i64 noundef 8) #15
  br label %gv_calloc.exit

8:                                                ; preds = %5
  %mul.ov.i = icmp slt i32 %1, 0
  br i1 %mul.ov.i, label %9, label %12

9:                                                ; preds = %8
  %10 = load ptr, ptr @stderr, align 8, !tbaa !16
  %11 = tail call i32 (ptr, ptr, ...) @fprintf(ptr noundef %10, ptr noundef nonnull @.str.4, i64 noundef %6, i64 noundef 8) #16
  tail call fastcc void @graphviz_exit() #17
  unreachable

12:                                               ; preds = %8
  %13 = tail call noalias ptr @calloc(i64 noundef %6, i64 noundef 8) #15
  %14 = icmp eq ptr %13, null
  br i1 %14, label %15, label %gv_calloc.exit

15:                                               ; preds = %12
  %16 = load ptr, ptr @stderr, align 8, !tbaa !16
  %17 = shl nuw nsw i64 %6, 3
  %18 = tail call i32 (ptr, ptr, ...) @fprintf(ptr noundef %16, ptr noundef nonnull @.str.5, i64 noundef %17) #16
  tail call fastcc void @graphviz_exit() #17
  unreachable

gv_calloc.exit:                                   ; preds = %.thread.i, %12
  %19 = phi ptr [ %7, %.thread.i ], [ %13, %12 ]
  store ptr %19, ptr %3, align 8, !tbaa !59
  br label %20

20:                                               ; preds = %gv_calloc.exit, %2
  %.0 = phi ptr [ %4, %2 ], [ %19, %gv_calloc.exit ]
  ret ptr %.0
}